target datalayout = "e-m:e-p270:32:32-p271:32:32-p272:64:64-i64:64-i128:128-f80:128-n8:16:32:64-S128"
target triple = "x86_64-pc-linux-gnu"

%struct._zend_array = type { %struct._zend_refcounted_h, %union.anon.4, i32, %union.anon.6, i32, i32, i32, i32, i64, ptr }
%struct._zend_refcounted_h = type { i32, %union.anon.3 }
%union.anon.3 = type { i32 }
%union.anon.4 = type { i32 }
%union.anon.6 = type { ptr }
%struct._zval_struct = type { %union._zend_value, %union.anon, %union.anon.2 }
%union._zend_value = type { i64 }
%union.anon = type { i32 }
%union.anon.2 = type { i32 }
%struct.pdo_driver_t = type { ptr, i64, i64, ptr }

@module_registry = external global %struct._zend_array, align 8
@.str.4 = private unnamed_addr constant [4 x i8] c"pdo\00", align 1
@.str.5 = private unnamed_addr constant [68 x i8] c"The PDO extension must be loaded first in order to load PDO drivers\00", align 1
@pdo_driver_specific_ce_hash = hidden global %struct._zend_array zeroinitializer, align 8

; Function Attrs: alwaysinline nounwind uwtable
define internal ptr @zend_hash_str_add_ptr(ptr noundef %0, ptr noundef %1, i64 noundef %2, ptr noundef %3) #5 {
  %5 = alloca ptr, align 8
  %6 = alloca ptr, align 8
  %7 = alloca ptr, align 8
  %8 = alloca i64, align 8
  %9 = alloca ptr, align 8
  %10 = alloca %struct._zval_struct, align 8
  %11 = alloca ptr, align 8
  %12 = alloca i32, align 4
  store ptr %0, ptr %6, align 8, !tbaa !16
  store ptr %1, ptr %7, align 8, !tbaa !31
  store i64 %2, ptr %8, align 8, !tbaa !33
  store ptr %3, ptr %9, align 8, !tbaa !24
  call void @llvm.lifetime.start.p0(i64 16, ptr %10) #14
  call void @llvm.lifetime.start.p0(i64 8, ptr %11) #14
  br label %13

13:                                               ; preds = %4
  %14 = load ptr, ptr %9, align 8, !tbaa !24
  %15 = getelementptr inbounds nuw %struct._zval_struct, ptr %10, i32 0, i32 0
  store ptr %14, ptr %15, align 8, !tbaa !15
  %16 = getelementptr inbounds nuw %struct._zval_struct, ptr %10, i32 0, i32 1
  store i32 13, ptr %16, align 8, !tbaa !15
  br label %17

17:                                               ; preds = %13
  br label %18

18:                                               ; preds = %17
  %19 = load ptr, ptr %6, align 8, !tbaa !16
  %20 = load ptr, ptr %7, align 8, !tbaa !31
  %21 = load i64, ptr %8, align 8, !tbaa !33
  %22 = call ptr @zend_hash_str_add(ptr noundef %19, ptr noundef %20, i64 noundef %21, ptr noundef %10)
  store ptr %22, ptr %11, align 8, !tbaa !13
  %23 = load ptr, ptr %11, align 8, !tbaa !13
  %24 = icmp ne ptr %23, null
  br i1 %24, label %25, label %33

25:                                               ; preds = %18
  %26 = load ptr, ptr %11, align 8, !tbaa !13
  %27 = getelementptr inbounds nuw %struct._zval_struct, ptr %26, i32 0, i32 0
  %28 = load ptr, ptr %27, align 8, !tbaa !15
  %29 = icmp ne ptr %28, null
  call void @llvm.assume(i1 %29)
  %30 = load ptr, ptr %11, align 8, !tbaa !13
  %31 = getelementptr inbounds nuw %struct._zval_struct, ptr %30, i32 0, i32 0
  %32 = load ptr, ptr %31, align 8, !tbaa !15
  store ptr %32, ptr %5, align 8
  store i32 1, ptr %12, align 4
  br label %34

33:                                               ; preds = %18
  store ptr null, ptr %5, align 8
  store i32 1, ptr %12, align 4
  br label %34

34:                                               ; preds = %33, %25
  call void @llvm.lifetime.end.p0(i64 8, ptr %11) #14
  call void @llvm.lifetime.end.p0(i64 16, ptr %10) #14
  %35 = load ptr, ptr %5, align 8
  ret ptr %35
}

; Function Attrs: alwaysinline nounwind uwtable
define internal zeroext i1 @zend_hash_str_exists(ptr noundef %0, ptr noundef %1, i64 noundef %2) #5 {
  %4 = alloca ptr, align 8
  %5 = alloca ptr, align 8
  %6 = alloca i64, align 8
  store ptr %0, ptr %4, align 8, !tbaa !16
  store ptr %1, ptr %5, align 8, !tbaa !31
  store i64 %2, ptr %6, align 8, !tbaa !33
  %7 = load ptr, ptr %4, align 8, !tbaa !16
  %8 = load ptr, ptr %5, align 8, !tbaa !31
  %9 = load i64, ptr %6, align 8, !tbaa !33
  %10 = call ptr @zend_hash_str_find(ptr noundef %7, ptr noundef %8, i64 noundef %9)
  %11 = icmp ne ptr %10, null
  ret i1 %11
}

; Function Attrs: nounwind uwtable
define dso_local i32 @php_pdo_register_driver_specific_ce(ptr noundef %0, ptr noundef %1) #0 {
  %3 = alloca ptr, align 8
  %4 = alloca ptr, align 8
  store ptr %0, ptr %3, align 8, !tbaa !24
  store ptr %1, ptr %4, align 8, !tbaa !8
  %5 = call zeroext i1 @zend_hash_str_exists(ptr noundef @module_registry, ptr noundef @.str.4, i64 noundef 3)
  br i1 %5, label %7, label %6

6:                                                ; preds = %2
  call void (i32, ptr, ...) @zend_error_noreturn(i32 noundef 1, ptr noundef @.str.5) #15
  unreachable

7:                                                ; preds = %2
  %8 = load ptr, ptr %3, align 8, !tbaa !24
  %9 = getelementptr inbounds nuw %struct.pdo_driver_t, ptr %8, i32 0, i32 0
  %10 = load ptr, ptr %9, align 8, !tbaa !25
  %11 = load ptr, ptr %3, align 8, !tbaa !24
  %12 = getelementptr inbounds nuw %struct.pdo_driver_t, ptr %11, i32 0, i32 1
  %13 = load i64, ptr %12, align 8, !tbaa !28
  %14 = load ptr, ptr %4, align 8, !tbaa !8
  %15 = call ptr @zend_hash_str_add_ptr(ptr noundef @pdo_driver_specific_ce_hash, ptr noundef %10, i64 noundef %13, ptr noundef %14)
  %16 = icmp ne ptr %15, null
  %17 = select i1 %16, i32 0, i32 -1
  ret i32 %17
}