; Function Attrs: nounwind uwtable
define dso_local range(i32 -1, 1) i32 @php_pdo_register_driver_specific_ce(ptr noundef readonly captures(none) %0, ptr noundef %1) local_unnamed_addr #1 {
  %3 = alloca %struct._zval_struct, align 8
  %4 = tail call ptr @zend_hash_str_find(ptr noundef nonnull @module_registry, ptr noundef nonnull @.str.4, i64 noundef 3) #13
  %.not3 = icmp eq ptr %4, null
  br i1 %.not3, label %5, label %zend_hash_str_add_ptr.exit

5:                                                ; preds = %2
  tail call void (i32, ptr, ...) @zend_error_noreturn(i32 noundef 1, ptr noundef nonnull @.str.5) #15
  unreachable

zend_hash_str_add_ptr.exit:                       ; preds = %2
  %6 = load ptr, ptr %0, align 8, !tbaa !18
  %7 = getelementptr inbounds nuw i8, ptr %0, i64 8
  %8 = load i64, ptr %7, align 8, !tbaa !21
  call void @llvm.lifetime.start.p0(i64 16, ptr nonnull %3) #13
  store ptr %1, ptr %3, align 8, !tbaa !11
  %9 = getelementptr inbounds nuw i8, ptr %3, i64 8
  store i32 13, ptr %9, align 8, !tbaa !11
  %10 = call ptr @zend_hash_str_add(ptr noundef nonnull @pdo_driver_specific_ce_hash, ptr noundef %6, i64 noundef %8, ptr noundef nonnull %3) #13
  %.not.i = icmp eq ptr %10, null
  call void @llvm.lifetime.end.p0(i64 16, ptr nonnull %3) #13
  %11 = sext i1 %.not.i to i32
  ret i32 %11
}